(dp1
S'Apache'
p2
S'<?xml version="1.0" encoding="UTF-8"?>\n<!DOCTYPE html PUBLIC "-//W3C//DTD XHTML 1.0 Strict//EN"\n  "http://www.w3.org/TR/xhtml1/DTD/xhtml1-strict.dtd">\n<html xmlns="http://www.w3.org/1999/xhtml" lang="en" xml:lang="en">\n<head>\n<title>Authentication required!</title>\n<link rev="made" href="mailto:admin@localhost" />\n<style type="text/css"><![CDATA[\n    body { color: #000000; background-color: #FFFFFF; }\n    a:link { color: #0000CC; }\n    p, address {margin-left: 3em;}\n    span {font-size: smaller;}\n]]></style>\n</head>\n\n<body>\n<h1>Authentication required!</h1>\n<p>\n\n    This server could not verify that you are authorized to access\n    the URL specified.\n    You either supplied the wrong credentials (e.g., bad password), or your\n    browser doesn\'t understand how to supply the credentials required.\n\n        <p></p>\n\n    In case you are allowed to request the document, please\n    check your user-id and password and try again.\n\n</p>\n<p>\nIf you think this is a server error, please contact\nthe <a href="mailto:admin@localhost">webmaster</a>.\n</p>\n\n<h2>Error 403</h2>\n<address>\n  <a href="/">Apache 2.4.1 </a><br />\n  <span>App engine 2.0</span>\n</address>\n</body>\n</html>'
p3
sS'Nginx'
p4
S'<!DOCTYPE html>\n<html>\n<head>\n<title>Error</title>\n<style>\n    body {\n        width: 35em;\n        margin: 0 auto;\n        font-family: Tahoma, Verdana, Arial, sans-serif;\n    }\n</style>\n</head>\n<body>\n<h1>An error occurred.</h1>\n<p>Sorry, the page you are looking for is currently unavailable.<br/>\nPlease try again later.</p>\n<p>If you are the system administrator of this resource then you should check\nthe <a href="http://nginx.org/r/error_log">error log</a> for details.</p>\n<p><em>Faithfully yours, nginx.</em></p>\n</body>\n</html>'
p5
sS'Internet Information Server (IIS)'
p6
S'<!DOCTYPE html PUBLIC "-//W3C//DTD XHTML 1.0 Strict//EN" "http://www.w3.org/TR/xhtml1/DTD/xhtml1-strict.dtd">\n<html xmlns="http://www.w3.org/1999/xhtml">\n<head>\n<meta http-equiv="Content-Type" content="text/html; charset=iso-8859-1"/>\n<title>403 - Prohibido: acceso denegado.</title>\n<style type="text/css">\n<!--\nbody{margin:0;font-size:.7em;font-family:Verdana, Arial, Helvetica, sans-serif;background:#EEEEEE;}\nfieldset{padding:0 15px 10px 15px;}\nh1{font-size:2.4em;margin:0;color:#FFF;}\nh2{font-size:1.7em;margin:0;color:#CC0000;}\nh3{font-size:1.2em;margin:10px 0 0 0;color:#000000;}\n#header{width:96%;margin:0 0 0 0;padding:6px 2% 6px 2%;font-family:"trebuchet MS", Verdana, sans-serif;color:#FFF;\nbackground-color:#555555;}\n#content{margin:0 0 0 2%;position:relative;}\n.content-container{background:#FFF;width:96%;margin-top:8px;padding:10px;position:relative;}\n-->\n</style>\n</head>\n<body>\n<div id="header"><h1>Error del servidor</h1></div>\n<div id="content">\n <div class="content-container"><fieldset>\n  <h2>403 - Prohibido: acceso denegado.</h2>\n  <h3>No tiene permiso para ver este directorio o esta p\xc3\xa1gina con las credenciales que ha proporcionado.</h3>\n </fieldset></div>\n</div>\n</body>\n</html>\n'
p7
sS'Apache Tomcat'
p8
S'<!DOCTYPE html PUBLIC "-//W3C//DTD HTML 4.01//EN" "http://www.w3.org/TR/html4/strict.dtd">\n<html>\n <head>\n  <title>403 Access Denied</title>\n  <style type="text/css">\n    <!--\n    BODY {font-family:Tahoma,Arial,sans-serif;color:black;background-color:white;font-size:12px;}\n    H1 {font-family:Tahoma,Arial,sans-serif;color:white;background-color:#525D76;font-size:22px;}\n    PRE, TT {border: 1px dotted #525D76}\n    A {color : black;}A.name {color : black;}\n    -->\n  </style>\n </head>\n <body>\n   <h1>403 Access Denied</h1>\n   <p>\n    You are not authorized to view this page.\n   </p>\n   <p>\n    If you have already configured the Manager application to allow access and\n    you have used your browsers back button, used a saved book-mark or similar\n    then you may have triggered the cross-site request forgery (CSRF) protection\n    that has been enabled for the HTML interface of the Manager application. You\n    will need to reset this protection by returning to the\n    <a href="<%=request.getContextPath()%>/html">main Manager page</a>. Once you\n    return to this page, you will be able to continue using the Manager\n    appliction\'s HTML interface normally. If you continue to see this access\n    denied message, check that you have the necessary permissions to access this\n    application.\n   </p>\n   <p>\n    If you have not changed\n    any configuration files, please examine the file\n    <tt>conf/tomcat-users.xml</tt> in your installation. That\n    file must contain the credentials to let you use this webapp.\n   </p>\n   <p>\n    For example, to add the <tt>manager-gui</tt> role to a user named\n    <tt>tomcat</tt> with a password of <tt>s3cret</tt>, add the following to the\n    config file listed above.\n   </p>\n<pre>\n&lt;role rolename="manager-gui"/&gt;\n&lt;user username="tomcat" password="s3cret" roles="manager-gui"/&gt;\n</pre>\n   <p>\n    Note that for Tomcat 7 onwards, the roles required to use the manager\n    application were changed from the single <tt>manager</tt> role to the\n    following four roles. You will need to assign the role(s) required for\n    the functionality you wish to access.\n   </p>\n    <ul>\n      <li><tt>manager-gui</tt> - allows access to the HTML GUI and the status\n          pages</li>\n      <li><tt>manager-script</tt> - allows access to the text interface and the\n          status pages</li>\n      <li><tt>manager-jmx</tt> - allows access to the JMX proxy and the status\n          pages</li>\n      <li><tt>manager-status</tt> - allows access to the status pages only</li>\n    </ul>\n   <p>\n    The HTML interface is protected against CSRF but the text and JMX interfaces\n    are not. To maintain the CSRF protection:\n   </p>\n   <ul>\n    <li>Users with the <tt>manager-gui</tt> role should not be granted either\n        the <tt>manager-script</tt> or <tt>manager-jmx</tt> roles.</li>\n    <li>If the text or jmx interfaces are accessed through a browser (e.g. for\n        testing since these interfaces are intended for tools not humans) then\n        the browser must be closed afterwards to terminate the session.</li>\n   </ul>\n   <p>\n    For more information - please see the\n    <a href="/docs/manager-howto.html">Manager App HOW-TO</a>.\n   </p>\n </body>\n\n</html>'
p9
s.